target datalayout = "e-m:e-p270:32:32-p271:32:32-p272:64:64-i64:64-i128:128-f80:128-n8:16:32:64-S128"
target triple = "x86_64-pc-linux-gnu"

%struct.repository = type { ptr, ptr, ptr, ptr, ptr, %struct.strmap, %struct.strmap, %struct.repo_path_cache, ptr, ptr, ptr, ptr, %struct.repo_settings, ptr, ptr, ptr, ptr, ptr, ptr, i32, i32, i32, ptr, ptr, i32, i32, i8 }
%struct.strmap = type { %struct.hashmap, ptr, i8 }
%struct.hashmap = type { ptr, ptr, ptr, i32, i32, i32, i32, i8 }
%struct.repo_path_cache = type { ptr, ptr, ptr, ptr, ptr, ptr, ptr }
%struct.repo_settings = type { i32, i32, i32, i32, i32, i32, i32, i32, i32, i32, i32, i32, ptr, i32, i32, i32, i32, i32, i32, i32, i64, i64, i64 }
%struct.git_hash_algo = type { ptr, i32, i64, i64, i64, ptr, ptr, ptr, ptr, ptr, ptr, ptr, ptr, ptr }

@the_repository = external global ptr, align 8

; Function Attrs: inlinehint nounwind uwtable
define internal i32 @default_swab32(i32 noundef %0) #2 {
  %2 = alloca i32, align 4
  store i32 %0, ptr %2, align 4, !tbaa !38
  %3 = load i32, ptr %2, align 4, !tbaa !38
  %4 = and i32 %3, -16777216
  %5 = lshr i32 %4, 24
  %6 = load i32, ptr %2, align 4, !tbaa !38
  %7 = and i32 %6, 16711680
  %8 = lshr i32 %7, 8
  %9 = or i32 %5, %8
  %10 = load i32, ptr %2, align 4, !tbaa !38
  %11 = and i32 %10, 65280
  %12 = shl i32 %11, 8
  %13 = or i32 %9, %12
  %14 = load i32, ptr %2, align 4, !tbaa !38
  %15 = and i32 %14, 255
  %16 = shl i32 %15, 24
  %17 = or i32 %13, %16
  ret i32 %17
}

; Function Attrs: inlinehint nounwind uwtable
define internal i32 @hashcmp(ptr noundef %0, ptr noundef %1, ptr noundef %2) #2 {
  %4 = alloca i32, align 4
  %5 = alloca ptr, align 8
  %6 = alloca ptr, align 8
  %7 = alloca ptr, align 8
  store ptr %0, ptr %5, align 8, !tbaa !41
  store ptr %1, ptr %6, align 8, !tbaa !41
  store ptr %2, ptr %7, align 8, !tbaa !46
  %8 = load ptr, ptr %7, align 8, !tbaa !46
  %9 = getelementptr inbounds nuw %struct.git_hash_algo, ptr %8, i32 0, i32 2
  %10 = load i64, ptr %9, align 8, !tbaa !34
  %11 = icmp eq i64 %10, 32
  br i1 %11, label %12, label %16

12:                                               ; preds = %3
  %13 = load ptr, ptr %5, align 8, !tbaa !41
  %14 = load ptr, ptr %6, align 8, !tbaa !41
  %15 = call i32 @memcmp(ptr noundef %13, ptr noundef %14, i64 noundef 32) #8
  store i32 %15, ptr %4, align 4
  br label %20

16:                                               ; preds = %3
  %17 = load ptr, ptr %5, align 8, !tbaa !41
  %18 = load ptr, ptr %6, align 8, !tbaa !41
  %19 = call i32 @memcmp(ptr noundef %17, ptr noundef %18, i64 noundef 20) #8
  store i32 %19, ptr %4, align 4
  br label %20

20:                                               ; preds = %16, %12
  %21 = load i32, ptr %4, align 4
  ret i32 %21
}

; Function Attrs: inlinehint nounwind uwtable
define internal i32 @git_bswap32(i32 noundef %0) #2 {
  %2 = alloca i32, align 4
  %3 = alloca i32, align 4
  store i32 %0, ptr %2, align 4, !tbaa !38
  call void @llvm.lifetime.start.p0(i64 4, ptr %3) #6
  %4 = load i32, ptr %2, align 4, !tbaa !38
  %5 = call i1 @llvm.is.constant.i32(i32 %4)
  br i1 %5, label %6, label %9

6:                                                ; preds = %1
  %7 = load i32, ptr %2, align 4, !tbaa !38
  %8 = call i32 @default_swab32(i32 noundef %7)
  store i32 %8, ptr %3, align 4, !tbaa !38
  br label %12

9:                                                ; preds = %1
  %10 = load i32, ptr %2, align 4, !tbaa !38
  %11 = call i32 asm "bswap $0", "=r,0,~{dirflag},~{fpsr},~{flags}"(i32 %10) #9, !srcloc !45
  store i32 %11, ptr %3, align 4, !tbaa !38
  br label %12

12:                                               ; preds = %9, %6
  %13 = load i32, ptr %3, align 4, !tbaa !38
  call void @llvm.lifetime.end.p0(i64 4, ptr %3) #6
  ret i32 %13
}

; Function Attrs: nounwind uwtable
define dso_local i32 @bsearch_hash(ptr noundef %0, ptr noundef %1, ptr noundef %2, i64 noundef %3, ptr noundef %4) #0 {
  %6 = alloca i32, align 4
  %7 = alloca ptr, align 8
  %8 = alloca ptr, align 8
  %9 = alloca ptr, align 8
  %10 = alloca i64, align 8
  %11 = alloca ptr, align 8
  %12 = alloca i32, align 4
  %13 = alloca i32, align 4
  %14 = alloca i32, align 4
  %15 = alloca i32, align 4
  %16 = alloca i32, align 4
  store ptr %0, ptr %7, align 8, !tbaa !41
  store ptr %1, ptr %8, align 8, !tbaa !42
  store ptr %2, ptr %9, align 8, !tbaa !41
  store i64 %3, ptr %10, align 8, !tbaa !10
  store ptr %4, ptr %11, align 8, !tbaa !42
  call void @llvm.lifetime.start.p0(i64 4, ptr %12) #6
  call void @llvm.lifetime.start.p0(i64 4, ptr %13) #6
  %17 = load ptr, ptr %8, align 8, !tbaa !42
  %18 = load ptr, ptr %7, align 8, !tbaa !41
  %19 = load i8, ptr %18, align 1, !tbaa !40
  %20 = zext i8 %19 to i64
  %21 = getelementptr inbounds nuw i32, ptr %17, i64 %20
  %22 = load i32, ptr %21, align 4, !tbaa !38
  %23 = call i32 @git_bswap32(i32 noundef %22)
  store i32 %23, ptr %12, align 4, !tbaa !38
  %24 = load ptr, ptr %7, align 8, !tbaa !41
  %25 = load i8, ptr %24, align 1, !tbaa !40
  %26 = zext i8 %25 to i32
  %27 = icmp eq i32 %26, 0
  br i1 %27, label %28, label %29

28:                                               ; preds = %5
  br label %39

29:                                               ; preds = %5
  %30 = load ptr, ptr %8, align 8, !tbaa !42
  %31 = load ptr, ptr %7, align 8, !tbaa !41
  %32 = load i8, ptr %31, align 1, !tbaa !40
  %33 = zext i8 %32 to i32
  %34 = sub nsw i32 %33, 1
  %35 = sext i32 %34 to i64
  %36 = getelementptr inbounds i32, ptr %30, i64 %35
  %37 = load i32, ptr %36, align 4, !tbaa !38
  %38 = call i32 @git_bswap32(i32 noundef %37)
  br label %39

39:                                               ; preds = %29, %28
  %40 = phi i32 [ 0, %28 ], [ %38, %29 ]
  store i32 %40, ptr %13, align 4, !tbaa !38
  br label %41

41:                                               ; preds = %83, %39
  %42 = load i32, ptr %13, align 4, !tbaa !38
  %43 = load i32, ptr %12, align 4, !tbaa !38
  %44 = icmp ult i32 %42, %43
  br i1 %44, label %45, label %84

45:                                               ; preds = %41
  call void @llvm.lifetime.start.p0(i64 4, ptr %14) #6
  %46 = load i32, ptr %13, align 4, !tbaa !38
  %47 = load i32, ptr %12, align 4, !tbaa !38
  %48 = load i32, ptr %13, align 4, !tbaa !38
  %49 = sub i32 %47, %48
  %50 = udiv i32 %49, 2
  %51 = add i32 %46, %50
  store i32 %51, ptr %14, align 4, !tbaa !38
  call void @llvm.lifetime.start.p0(i64 4, ptr %15) #6
  %52 = load ptr, ptr %9, align 8, !tbaa !41
  %53 = load i32, ptr %14, align 4, !tbaa !38
  %54 = zext i32 %53 to i64
  %55 = load i64, ptr %10, align 8, !tbaa !10
  %56 = mul i64 %54, %55
  %57 = getelementptr inbounds nuw i8, ptr %52, i64 %56
  %58 = load ptr, ptr %7, align 8, !tbaa !41
  %59 = load ptr, ptr @the_repository, align 8, !tbaa !12
  %60 = getelementptr inbounds nuw %struct.repository, ptr %59, i32 0, i32 17
  %61 = load ptr, ptr %60, align 8, !tbaa !14
  %62 = call i32 @hashcmp(ptr noundef %57, ptr noundef %58, ptr noundef %61)
  store i32 %62, ptr %15, align 4, !tbaa !38
  %63 = load i32, ptr %15, align 4, !tbaa !38
  %64 = icmp ne i32 %63, 0
  br i1 %64, label %72, label %65

65:                                               ; preds = %45
  %66 = load ptr, ptr %11, align 8, !tbaa !42
  %67 = icmp ne ptr %66, null
  br i1 %67, label %68, label %71

68:                                               ; preds = %65
  %69 = load i32, ptr %14, align 4, !tbaa !38
  %70 = load ptr, ptr %11, align 8, !tbaa !42
  store i32 %69, ptr %70, align 4, !tbaa !38
  br label %71

71:                                               ; preds = %68, %65
  store i32 1, ptr %6, align 4
  store i32 1, ptr %16, align 4
  br label %81

72:                                               ; preds = %45
  %73 = load i32, ptr %15, align 4, !tbaa !38
  %74 = icmp sgt i32 %73, 0
  br i1 %74, label %75, label %77

75:                                               ; preds = %72
  %76 = load i32, ptr %14, align 4, !tbaa !38
  store i32 %76, ptr %12, align 4, !tbaa !38
  br label %80

77:                                               ; preds = %72
  %78 = load i32, ptr %14, align 4, !tbaa !38
  %79 = add i32 %78, 1
  store i32 %79, ptr %13, align 4, !tbaa !38
  br label %80

80:                                               ; preds = %77, %75
  store i32 0, ptr %16, align 4
  br label %81

81:                                               ; preds = %80, %71
  call void @llvm.lifetime.end.p0(i64 4, ptr %15) #6
  call void @llvm.lifetime.end.p0(i64 4, ptr %14) #6
  %82 = load i32, ptr %16, align 4
  switch i32 %82, label %91 [
    i32 0, label %83
  ]

83:                                               ; preds = %81
  br label %41, !llvm.loop !44

84:                                               ; preds = %41
  %85 = load ptr, ptr %11, align 8, !tbaa !42
  %86 = icmp ne ptr %85, null
  br i1 %86, label %87, label %90

87:                                               ; preds = %84
  %88 = load i32, ptr %13, align 4, !tbaa !38
  %89 = load ptr, ptr %11, align 8, !tbaa !42
  store i32 %88, ptr %89, align 4, !tbaa !38
  br label %90

90:                                               ; preds = %87, %84
  store i32 0, ptr %6, align 4
  store i32 1, ptr %16, align 4
  br label %91

91:                                               ; preds = %90, %81
  call void @llvm.lifetime.end.p0(i64 4, ptr %13) #6
  call void @llvm.lifetime.end.p0(i64 4, ptr %12) #6
  %92 = load i32, ptr %6, align 4
  ret i32 %92
}