; Function Attrs: nounwind memory(read, argmem: readwrite, inaccessiblemem: none) uwtable
define dso_local range(i32 0, 2) i32 @bsearch_hash(ptr noundef readonly captures(none) %0, ptr noundef readonly captures(none) %1, ptr noundef readonly captures(none) %2, i64 noundef %3, ptr noundef writeonly %4) local_unnamed_addr #2 {
git_bswap32.exit:
  %5 = load i8, ptr %0, align 1, !tbaa !35
  %6 = zext i8 %5 to i64
  %7 = getelementptr inbounds nuw i32, ptr %1, i64 %6
  %8 = load i32, ptr %7, align 4, !tbaa !37
  %9 = tail call i32 asm "bswap $0", "=r,0,~{dirflag},~{fpsr},~{flags}"(i32 %8) #7, !srcloc !38
  %10 = icmp eq i8 %5, 0
  br i1 %10, label %git_bswap32.exit39, label %11

11:                                               ; preds = %git_bswap32.exit
  %12 = add nuw nsw i64 %6, 4294967295
  %13 = and i64 %12, 4294967295
  %14 = getelementptr inbounds nuw i32, ptr %1, i64 %13
  %15 = load i32, ptr %14, align 4, !tbaa !37
  %16 = tail call i32 asm "bswap $0", "=r,0,~{dirflag},~{fpsr},~{flags}"(i32 %15) #7, !srcloc !38
  br label %git_bswap32.exit39

git_bswap32.exit39:                               ; preds = %11, %git_bswap32.exit
  %17 = phi i32 [ 0, %git_bswap32.exit ], [ %16, %11 ]
  %18 = icmp ult i32 %17, %9
  br i1 %18, label %.lr.ph, label %._crit_edge

.lr.ph:                                           ; preds = %git_bswap32.exit39
  %19 = load ptr, ptr @the_repository, align 8, !tbaa !4
  %20 = getelementptr inbounds nuw i8, ptr %19, i64 400
  %21 = load ptr, ptr %20, align 8, !tbaa !9
  %22 = getelementptr i8, ptr %21, i64 16
  %.val = load i64, ptr %22, align 8, !tbaa !30
  %23 = icmp eq i64 %.val, 32
  %..i = select i1 %23, i64 32, i64 20
  br label %24

24:                                               ; preds = %.lr.ph, %33
  %.02644 = phi i32 [ %9, %.lr.ph ], [ %.228, %33 ]
  %.02943 = phi i32 [ %17, %.lr.ph ], [ %.231, %33 ]
  %25 = sub nuw i32 %.02644, %.02943
  %26 = lshr i32 %25, 1
  %27 = add i32 %26, %.02943
  %28 = zext i32 %27 to i64
  %29 = mul i64 %3, %28
  %30 = getelementptr inbounds nuw i8, ptr %2, i64 %29
  %31 = tail call i32 @memcmp(ptr noundef nonnull readonly dereferenceable(20) %30, ptr noundef nonnull readonly dereferenceable(20) %0, i64 noundef %..i) #6
  %.not36.not = icmp eq i32 %31, 0
  br i1 %.not36.not, label %32, label %33

32:                                               ; preds = %24
  %.not37 = icmp eq ptr %4, null
  br i1 %.not37, label %.thread, label %.thread.sink.split

33:                                               ; preds = %24
  %34 = icmp sgt i32 %31, 0
  %35 = add i32 %27, 1
  %.231 = select i1 %34, i32 %.02943, i32 %35
  %.228 = select i1 %34, i32 %27, i32 %.02644
  %36 = icmp ult i32 %.231, %.228
  br i1 %36, label %24, label %._crit_edge, !llvm.loop !39

._crit_edge:                                      ; preds = %33, %git_bswap32.exit39
  %.029.lcssa = phi i32 [ %17, %git_bswap32.exit39 ], [ %.231, %33 ]
  %.not = icmp eq ptr %4, null
  br i1 %.not, label %.thread, label %.thread.sink.split

.thread.sink.split:                               ; preds = %._crit_edge, %32
  %.lcssa.sink = phi i32 [ %27, %32 ], [ %.029.lcssa, %._crit_edge ]
  %.2.ph = phi i32 [ 1, %32 ], [ 0, %._crit_edge ]
  store i32 %.lcssa.sink, ptr %4, align 4, !tbaa !37
  br label %.thread

.thread:                                          ; preds = %.thread.sink.split, %32, %._crit_edge
  %.2 = phi i32 [ 0, %._crit_edge ], [ 1, %32 ], [ %.2.ph, %.thread.sink.split ]
  ret i32 %.2
}